target datalayout = "e-m:e-p270:32:32-p271:32:32-p272:64:64-i64:64-i128:128-f80:128-n8:16:32:64-S128"
target triple = "x86_64-pc-linux-gnu"

%"class.Json::Value" = type { %"union.Json::Value::ValueHolder", %struct.anon, %"class.Json::Value::Comments", i64, i64 }
%"union.Json::Value::ValueHolder" = type { i64 }
%struct.anon = type { i16, [2 x i8] }
%"class.Json::Value::Comments" = type { %"class.std::unique_ptr" }
%"class.std::unique_ptr" = type { %"struct.std::__uniq_ptr_data" }
%"struct.std::__uniq_ptr_data" = type { %"class.std::__uniq_ptr_impl" }
%"class.std::__uniq_ptr_impl" = type { %"class.std::tuple" }
%"class.std::tuple" = type { %"struct.std::_Tuple_impl" }
%"struct.std::_Tuple_impl" = type { %"struct.std::_Head_base.10" }
%"struct.std::_Head_base.10" = type { ptr }

@.str.30 = private unnamed_addr constant [16 x i8] c"collectComments\00", align 1
@.str.31 = private unnamed_addr constant [14 x i8] c"allowComments\00", align 1
@.str.32 = private unnamed_addr constant [20 x i8] c"allowTrailingCommas\00", align 1
@.str.33 = private unnamed_addr constant [11 x i8] c"strictRoot\00", align 1
@.str.34 = private unnamed_addr constant [29 x i8] c"allowDroppedNullPlaceholders\00", align 1
@.str.35 = private unnamed_addr constant [17 x i8] c"allowNumericKeys\00", align 1
@.str.36 = private unnamed_addr constant [18 x i8] c"allowSingleQuotes\00", align 1
@.str.37 = private unnamed_addr constant [11 x i8] c"stackLimit\00", align 1
@.str.38 = private unnamed_addr constant [12 x i8] c"failIfExtra\00", align 1
@.str.39 = private unnamed_addr constant [14 x i8] c"rejectDupKeys\00", align 1
@.str.40 = private unnamed_addr constant [19 x i8] c"allowSpecialFloats\00", align 1
@.str.41 = private unnamed_addr constant [8 x i8] c"skipBom\00", align 1

; Function Attrs: mustprogress uwtable
define dso_local void @_ZN4Json17CharReaderBuilder11setDefaultsEPNS_5ValueE(ptr noundef %0) #5 align 2 personality ptr @__gxx_personality_v0 {
  %2 = alloca ptr, align 8
  %3 = alloca %"class.Json::Value", align 8
  %4 = alloca ptr, align 8
  %5 = alloca i32, align 4
  %6 = alloca %"class.Json::Value", align 8
  %7 = alloca %"class.Json::Value", align 8
  %8 = alloca %"class.Json::Value", align 8
  %9 = alloca %"class.Json::Value", align 8
  %10 = alloca %"class.Json::Value", align 8
  %11 = alloca %"class.Json::Value", align 8
  %12 = alloca %"class.Json::Value", align 8
  %13 = alloca %"class.Json::Value", align 8
  %14 = alloca %"class.Json::Value", align 8
  %15 = alloca %"class.Json::Value", align 8
  %16 = alloca %"class.Json::Value", align 8
  store ptr %0, ptr %2, align 8
  call void @_ZN4Json5ValueC1Eb(ptr noundef nonnull align 8 dereferenceable(40) %3, i1 noundef zeroext true)
  %17 = load ptr, ptr %2, align 8
  %18 = invoke noundef nonnull align 8 dereferenceable(40) ptr @_ZN4Json5ValueixEPKc(ptr noundef nonnull align 8 dereferenceable(40) %17, ptr noundef @.str.30)
          to label %19 unwind label %65

19:                                               ; preds = %1
  %20 = call noundef nonnull align 8 dereferenceable(40) ptr @_ZN4Json5ValueaSEOS0_(ptr noundef nonnull align 8 dereferenceable(40) %18, ptr noundef nonnull align 8 dereferenceable(40) %3) #3
  call void @_ZN4Json5ValueD1Ev(ptr noundef nonnull align 8 dereferenceable(40) %3) #3
  call void @_ZN4Json5ValueC1Eb(ptr noundef nonnull align 8 dereferenceable(40) %6, i1 noundef zeroext true)
  %21 = load ptr, ptr %2, align 8
  %22 = invoke noundef nonnull align 8 dereferenceable(40) ptr @_ZN4Json5ValueixEPKc(ptr noundef nonnull align 8 dereferenceable(40) %21, ptr noundef @.str.31)
          to label %23 unwind label %69

23:                                               ; preds = %19
  %24 = call noundef nonnull align 8 dereferenceable(40) ptr @_ZN4Json5ValueaSEOS0_(ptr noundef nonnull align 8 dereferenceable(40) %22, ptr noundef nonnull align 8 dereferenceable(40) %6) #3
  call void @_ZN4Json5ValueD1Ev(ptr noundef nonnull align 8 dereferenceable(40) %6) #3
  call void @_ZN4Json5ValueC1Eb(ptr noundef nonnull align 8 dereferenceable(40) %7, i1 noundef zeroext true)
  %25 = load ptr, ptr %2, align 8
  %26 = invoke noundef nonnull align 8 dereferenceable(40) ptr @_ZN4Json5ValueixEPKc(ptr noundef nonnull align 8 dereferenceable(40) %25, ptr noundef @.str.32)
          to label %27 unwind label %73

27:                                               ; preds = %23
  %28 = call noundef nonnull align 8 dereferenceable(40) ptr @_ZN4Json5ValueaSEOS0_(ptr noundef nonnull align 8 dereferenceable(40) %26, ptr noundef nonnull align 8 dereferenceable(40) %7) #3
  call void @_ZN4Json5ValueD1Ev(ptr noundef nonnull align 8 dereferenceable(40) %7) #3
  call void @_ZN4Json5ValueC1Eb(ptr noundef nonnull align 8 dereferenceable(40) %8, i1 noundef zeroext false)
  %29 = load ptr, ptr %2, align 8
  %30 = invoke noundef nonnull align 8 dereferenceable(40) ptr @_ZN4Json5ValueixEPKc(ptr noundef nonnull align 8 dereferenceable(40) %29, ptr noundef @.str.33)
          to label %31 unwind label %77

31:                                               ; preds = %27
  %32 = call noundef nonnull align 8 dereferenceable(40) ptr @_ZN4Json5ValueaSEOS0_(ptr noundef nonnull align 8 dereferenceable(40) %30, ptr noundef nonnull align 8 dereferenceable(40) %8) #3
  call void @_ZN4Json5ValueD1Ev(ptr noundef nonnull align 8 dereferenceable(40) %8) #3
  call void @_ZN4Json5ValueC1Eb(ptr noundef nonnull align 8 dereferenceable(40) %9, i1 noundef zeroext false)
  %33 = load ptr, ptr %2, align 8
  %34 = invoke noundef nonnull align 8 dereferenceable(40) ptr @_ZN4Json5ValueixEPKc(ptr noundef nonnull align 8 dereferenceable(40) %33, ptr noundef @.str.34)
          to label %35 unwind label %81

35:                                               ; preds = %31
  %36 = call noundef nonnull align 8 dereferenceable(40) ptr @_ZN4Json5ValueaSEOS0_(ptr noundef nonnull align 8 dereferenceable(40) %34, ptr noundef nonnull align 8 dereferenceable(40) %9) #3
  call void @_ZN4Json5ValueD1Ev(ptr noundef nonnull align 8 dereferenceable(40) %9) #3
  call void @_ZN4Json5ValueC1Eb(ptr noundef nonnull align 8 dereferenceable(40) %10, i1 noundef zeroext false)
  %37 = load ptr, ptr %2, align 8
  %38 = invoke noundef nonnull align 8 dereferenceable(40) ptr @_ZN4Json5ValueixEPKc(ptr noundef nonnull align 8 dereferenceable(40) %37, ptr noundef @.str.35)
          to label %39 unwind label %85

39:                                               ; preds = %35
  %40 = call noundef nonnull align 8 dereferenceable(40) ptr @_ZN4Json5ValueaSEOS0_(ptr noundef nonnull align 8 dereferenceable(40) %38, ptr noundef nonnull align 8 dereferenceable(40) %10) #3
  call void @_ZN4Json5ValueD1Ev(ptr noundef nonnull align 8 dereferenceable(40) %10) #3
  call void @_ZN4Json5ValueC1Eb(ptr noundef nonnull align 8 dereferenceable(40) %11, i1 noundef zeroext false)
  %41 = load ptr, ptr %2, align 8
  %42 = invoke noundef nonnull align 8 dereferenceable(40) ptr @_ZN4Json5ValueixEPKc(ptr noundef nonnull align 8 dereferenceable(40) %41, ptr noundef @.str.36)
          to label %43 unwind label %89

43:                                               ; preds = %39
  %44 = call noundef nonnull align 8 dereferenceable(40) ptr @_ZN4Json5ValueaSEOS0_(ptr noundef nonnull align 8 dereferenceable(40) %42, ptr noundef nonnull align 8 dereferenceable(40) %11) #3
  call void @_ZN4Json5ValueD1Ev(ptr noundef nonnull align 8 dereferenceable(40) %11) #3
  call void @_ZN4Json5ValueC1Ei(ptr noundef nonnull align 8 dereferenceable(40) %12, i32 noundef 1000)
  %45 = load ptr, ptr %2, align 8
  %46 = invoke noundef nonnull align 8 dereferenceable(40) ptr @_ZN4Json5ValueixEPKc(ptr noundef nonnull align 8 dereferenceable(40) %45, ptr noundef @.str.37)
          to label %47 unwind label %93

47:                                               ; preds = %43
  %48 = call noundef nonnull align 8 dereferenceable(40) ptr @_ZN4Json5ValueaSEOS0_(ptr noundef nonnull align 8 dereferenceable(40) %46, ptr noundef nonnull align 8 dereferenceable(40) %12) #3
  call void @_ZN4Json5ValueD1Ev(ptr noundef nonnull align 8 dereferenceable(40) %12) #3
  call void @_ZN4Json5ValueC1Eb(ptr noundef nonnull align 8 dereferenceable(40) %13, i1 noundef zeroext false)
  %49 = load ptr, ptr %2, align 8
  %50 = invoke noundef nonnull align 8 dereferenceable(40) ptr @_ZN4Json5ValueixEPKc(ptr noundef nonnull align 8 dereferenceable(40) %49, ptr noundef @.str.38)
          to label %51 unwind label %97

51:                                               ; preds = %47
  %52 = call noundef nonnull align 8 dereferenceable(40) ptr @_ZN4Json5ValueaSEOS0_(ptr noundef nonnull align 8 dereferenceable(40) %50, ptr noundef nonnull align 8 dereferenceable(40) %13) #3
  call void @_ZN4Json5ValueD1Ev(ptr noundef nonnull align 8 dereferenceable(40) %13) #3
  call void @_ZN4Json5ValueC1Eb(ptr noundef nonnull align 8 dereferenceable(40) %14, i1 noundef zeroext false)
  %53 = load ptr, ptr %2, align 8
  %54 = invoke noundef nonnull align 8 dereferenceable(40) ptr @_ZN4Json5ValueixEPKc(ptr noundef nonnull align 8 dereferenceable(40) %53, ptr noundef @.str.39)
          to label %55 unwind label %101

55:                                               ; preds = %51
  %56 = call noundef nonnull align 8 dereferenceable(40) ptr @_ZN4Json5ValueaSEOS0_(ptr noundef nonnull align 8 dereferenceable(40) %54, ptr noundef nonnull align 8 dereferenceable(40) %14) #3
  call void @_ZN4Json5ValueD1Ev(ptr noundef nonnull align 8 dereferenceable(40) %14) #3
  call void @_ZN4Json5ValueC1Eb(ptr noundef nonnull align 8 dereferenceable(40) %15, i1 noundef zeroext false)
  %57 = load ptr, ptr %2, align 8
  %58 = invoke noundef nonnull align 8 dereferenceable(40) ptr @_ZN4Json5ValueixEPKc(ptr noundef nonnull align 8 dereferenceable(40) %57, ptr noundef @.str.40)
          to label %59 unwind label %105

59:                                               ; preds = %55
  %60 = call noundef nonnull align 8 dereferenceable(40) ptr @_ZN4Json5ValueaSEOS0_(ptr noundef nonnull align 8 dereferenceable(40) %58, ptr noundef nonnull align 8 dereferenceable(40) %15) #3
  call void @_ZN4Json5ValueD1Ev(ptr noundef nonnull align 8 dereferenceable(40) %15) #3
  call void @_ZN4Json5ValueC1Eb(ptr noundef nonnull align 8 dereferenceable(40) %16, i1 noundef zeroext true)
  %61 = load ptr, ptr %2, align 8
  %62 = invoke noundef nonnull align 8 dereferenceable(40) ptr @_ZN4Json5ValueixEPKc(ptr noundef nonnull align 8 dereferenceable(40) %61, ptr noundef @.str.41)
          to label %63 unwind label %109

63:                                               ; preds = %59
  %64 = call noundef nonnull align 8 dereferenceable(40) ptr @_ZN4Json5ValueaSEOS0_(ptr noundef nonnull align 8 dereferenceable(40) %62, ptr noundef nonnull align 8 dereferenceable(40) %16) #3
  call void @_ZN4Json5ValueD1Ev(ptr noundef nonnull align 8 dereferenceable(40) %16) #3
  ret void

65:                                               ; preds = %1
  %66 = landingpad { ptr, i32 }
          cleanup
  %67 = extractvalue { ptr, i32 } %66, 0
  store ptr %67, ptr %4, align 8
  %68 = extractvalue { ptr, i32 } %66, 1
  store i32 %68, ptr %5, align 4
  call void @_ZN4Json5ValueD1Ev(ptr noundef nonnull align 8 dereferenceable(40) %3) #3
  br label %113

69:                                               ; preds = %19
  %70 = landingpad { ptr, i32 }
          cleanup
  %71 = extractvalue { ptr, i32 } %70, 0
  store ptr %71, ptr %4, align 8
  %72 = extractvalue { ptr, i32 } %70, 1
  store i32 %72, ptr %5, align 4
  call void @_ZN4Json5ValueD1Ev(ptr noundef nonnull align 8 dereferenceable(40) %6) #3
  br label %113

73:                                               ; preds = %23
  %74 = landingpad { ptr, i32 }
          cleanup
  %75 = extractvalue { ptr, i32 } %74, 0
  store ptr %75, ptr %4, align 8
  %76 = extractvalue { ptr, i32 } %74, 1
  store i32 %76, ptr %5, align 4
  call void @_ZN4Json5ValueD1Ev(ptr noundef nonnull align 8 dereferenceable(40) %7) #3
  br label %113

77:                                               ; preds = %27
  %78 = landingpad { ptr, i32 }
          cleanup
  %79 = extractvalue { ptr, i32 } %78, 0
  store ptr %79, ptr %4, align 8
  %80 = extractvalue { ptr, i32 } %78, 1
  store i32 %80, ptr %5, align 4
  call void @_ZN4Json5ValueD1Ev(ptr noundef nonnull align 8 dereferenceable(40) %8) #3
  br label %113

81:                                               ; preds = %31
  %82 = landingpad { ptr, i32 }
          cleanup
  %83 = extractvalue { ptr, i32 } %82, 0
  store ptr %83, ptr %4, align 8
  %84 = extractvalue { ptr, i32 } %82, 1
  store i32 %84, ptr %5, align 4
  call void @_ZN4Json5ValueD1Ev(ptr noundef nonnull align 8 dereferenceable(40) %9) #3
  br label %113

85:                                               ; preds = %35
  %86 = landingpad { ptr, i32 }
          cleanup
  %87 = extractvalue { ptr, i32 } %86, 0
  store ptr %87, ptr %4, align 8
  %88 = extractvalue { ptr, i32 } %86, 1
  store i32 %88, ptr %5, align 4
  call void @_ZN4Json5ValueD1Ev(ptr noundef nonnull align 8 dereferenceable(40) %10) #3
  br label %113

89:                                               ; preds = %39
  %90 = landingpad { ptr, i32 }
          cleanup
  %91 = extractvalue { ptr, i32 } %90, 0
  store ptr %91, ptr %4, align 8
  %92 = extractvalue { ptr, i32 } %90, 1
  store i32 %92, ptr %5, align 4
  call void @_ZN4Json5ValueD1Ev(ptr noundef nonnull align 8 dereferenceable(40) %11) #3
  br label %113

93:                                               ; preds = %43
  %94 = landingpad { ptr, i32 }
          cleanup
  %95 = extractvalue { ptr, i32 } %94, 0
  store ptr %95, ptr %4, align 8
  %96 = extractvalue { ptr, i32 } %94, 1
  store i32 %96, ptr %5, align 4
  call void @_ZN4Json5ValueD1Ev(ptr noundef nonnull align 8 dereferenceable(40) %12) #3
  br label %113

97:                                               ; preds = %47
  %98 = landingpad { ptr, i32 }
          cleanup
  %99 = extractvalue { ptr, i32 } %98, 0
  store ptr %99, ptr %4, align 8
  %100 = extractvalue { ptr, i32 } %98, 1
  store i32 %100, ptr %5, align 4
  call void @_ZN4Json5ValueD1Ev(ptr noundef nonnull align 8 dereferenceable(40) %13) #3
  br label %113

101:                                              ; preds = %51
  %102 = landingpad { ptr, i32 }
          cleanup
  %103 = extractvalue { ptr, i32 } %102, 0
  store ptr %103, ptr %4, align 8
  %104 = extractvalue { ptr, i32 } %102, 1
  store i32 %104, ptr %5, align 4
  call void @_ZN4Json5ValueD1Ev(ptr noundef nonnull align 8 dereferenceable(40) %14) #3
  br label %113

105:                                              ; preds = %55
  %106 = landingpad { ptr, i32 }
          cleanup
  %107 = extractvalue { ptr, i32 } %106, 0
  store ptr %107, ptr %4, align 8
  %108 = extractvalue { ptr, i32 } %106, 1
  store i32 %108, ptr %5, align 4
  call void @_ZN4Json5ValueD1Ev(ptr noundef nonnull align 8 dereferenceable(40) %15) #3
  br label %113

109:                                              ; preds = %59
  %110 = landingpad { ptr, i32 }
          cleanup
  %111 = extractvalue { ptr, i32 } %110, 0
  store ptr %111, ptr %4, align 8
  %112 = extractvalue { ptr, i32 } %110, 1
  store i32 %112, ptr %5, align 4
  call void @_ZN4Json5ValueD1Ev(ptr noundef nonnull align 8 dereferenceable(40) %16) #3
  br label %113

113:                                              ; preds = %109, %105, %101, %97, %93, %89, %85, %81, %77, %73, %69, %65
  %114 = load ptr, ptr %4, align 8
  %115 = load i32, ptr %5, align 4
  %116 = insertvalue { ptr, i32 } poison, ptr %114, 0
  %117 = insertvalue { ptr, i32 } %116, i32 %115, 1
  resume { ptr, i32 } %117
}