; Function Attrs: mustprogress uwtable
define dso_local void @_ZN4Json17CharReaderBuilder11setDefaultsEPNS_5ValueE(ptr noundef %0) local_unnamed_addr #6 align 2 personality ptr @__gxx_personality_v0 {
  %2 = alloca %"class.Json::Value", align 8
  %3 = alloca %"class.Json::Value", align 8
  %4 = alloca %"class.Json::Value", align 8
  %5 = alloca %"class.Json::Value", align 8
  %6 = alloca %"class.Json::Value", align 8
  %7 = alloca %"class.Json::Value", align 8
  %8 = alloca %"class.Json::Value", align 8
  %9 = alloca %"class.Json::Value", align 8
  %10 = alloca %"class.Json::Value", align 8
  %11 = alloca %"class.Json::Value", align 8
  %12 = alloca %"class.Json::Value", align 8
  %13 = alloca %"class.Json::Value", align 8
  call void @_ZN4Json5ValueC1Eb(ptr noundef nonnull align 8 dereferenceable(40) %2, i1 noundef zeroext true)
  %14 = invoke noundef nonnull align 8 dereferenceable(40) ptr @_ZN4Json5ValueixEPKc(ptr noundef nonnull align 8 dereferenceable(40) %0, ptr noundef nonnull @.str.30)
          to label %15 unwind label %50

15:                                               ; preds = %1
  %16 = call noundef nonnull align 8 dereferenceable(40) ptr @_ZN4Json5ValueaSEOS0_(ptr noundef nonnull align 8 dereferenceable(40) %14, ptr noundef nonnull align 8 dereferenceable(40) %2) #25
  call void @_ZN4Json5ValueD1Ev(ptr noundef nonnull align 8 dereferenceable(40) %2) #25
  call void @_ZN4Json5ValueC1Eb(ptr noundef nonnull align 8 dereferenceable(40) %3, i1 noundef zeroext true)
  %17 = invoke noundef nonnull align 8 dereferenceable(40) ptr @_ZN4Json5ValueixEPKc(ptr noundef nonnull align 8 dereferenceable(40) %0, ptr noundef nonnull @.str.31)
          to label %18 unwind label %52

18:                                               ; preds = %15
  %19 = call noundef nonnull align 8 dereferenceable(40) ptr @_ZN4Json5ValueaSEOS0_(ptr noundef nonnull align 8 dereferenceable(40) %17, ptr noundef nonnull align 8 dereferenceable(40) %3) #25
  call void @_ZN4Json5ValueD1Ev(ptr noundef nonnull align 8 dereferenceable(40) %3) #25
  call void @_ZN4Json5ValueC1Eb(ptr noundef nonnull align 8 dereferenceable(40) %4, i1 noundef zeroext true)
  %20 = invoke noundef nonnull align 8 dereferenceable(40) ptr @_ZN4Json5ValueixEPKc(ptr noundef nonnull align 8 dereferenceable(40) %0, ptr noundef nonnull @.str.32)
          to label %21 unwind label %54

21:                                               ; preds = %18
  %22 = call noundef nonnull align 8 dereferenceable(40) ptr @_ZN4Json5ValueaSEOS0_(ptr noundef nonnull align 8 dereferenceable(40) %20, ptr noundef nonnull align 8 dereferenceable(40) %4) #25
  call void @_ZN4Json5ValueD1Ev(ptr noundef nonnull align 8 dereferenceable(40) %4) #25
  call void @_ZN4Json5ValueC1Eb(ptr noundef nonnull align 8 dereferenceable(40) %5, i1 noundef zeroext false)
  %23 = invoke noundef nonnull align 8 dereferenceable(40) ptr @_ZN4Json5ValueixEPKc(ptr noundef nonnull align 8 dereferenceable(40) %0, ptr noundef nonnull @.str.33)
          to label %24 unwind label %56

24:                                               ; preds = %21
  %25 = call noundef nonnull align 8 dereferenceable(40) ptr @_ZN4Json5ValueaSEOS0_(ptr noundef nonnull align 8 dereferenceable(40) %23, ptr noundef nonnull align 8 dereferenceable(40) %5) #25
  call void @_ZN4Json5ValueD1Ev(ptr noundef nonnull align 8 dereferenceable(40) %5) #25
  call void @_ZN4Json5ValueC1Eb(ptr noundef nonnull align 8 dereferenceable(40) %6, i1 noundef zeroext false)
  %26 = invoke noundef nonnull align 8 dereferenceable(40) ptr @_ZN4Json5ValueixEPKc(ptr noundef nonnull align 8 dereferenceable(40) %0, ptr noundef nonnull @.str.34)
          to label %27 unwind label %58

27:                                               ; preds = %24
  %28 = call noundef nonnull align 8 dereferenceable(40) ptr @_ZN4Json5ValueaSEOS0_(ptr noundef nonnull align 8 dereferenceable(40) %26, ptr noundef nonnull align 8 dereferenceable(40) %6) #25
  call void @_ZN4Json5ValueD1Ev(ptr noundef nonnull align 8 dereferenceable(40) %6) #25
  call void @_ZN4Json5ValueC1Eb(ptr noundef nonnull align 8 dereferenceable(40) %7, i1 noundef zeroext false)
  %29 = invoke noundef nonnull align 8 dereferenceable(40) ptr @_ZN4Json5ValueixEPKc(ptr noundef nonnull align 8 dereferenceable(40) %0, ptr noundef nonnull @.str.35)
          to label %30 unwind label %60

30:                                               ; preds = %27
  %31 = call noundef nonnull align 8 dereferenceable(40) ptr @_ZN4Json5ValueaSEOS0_(ptr noundef nonnull align 8 dereferenceable(40) %29, ptr noundef nonnull align 8 dereferenceable(40) %7) #25
  call void @_ZN4Json5ValueD1Ev(ptr noundef nonnull align 8 dereferenceable(40) %7) #25
  call void @_ZN4Json5ValueC1Eb(ptr noundef nonnull align 8 dereferenceable(40) %8, i1 noundef zeroext false)
  %32 = invoke noundef nonnull align 8 dereferenceable(40) ptr @_ZN4Json5ValueixEPKc(ptr noundef nonnull align 8 dereferenceable(40) %0, ptr noundef nonnull @.str.36)
          to label %33 unwind label %62

33:                                               ; preds = %30
  %34 = call noundef nonnull align 8 dereferenceable(40) ptr @_ZN4Json5ValueaSEOS0_(ptr noundef nonnull align 8 dereferenceable(40) %32, ptr noundef nonnull align 8 dereferenceable(40) %8) #25
  call void @_ZN4Json5ValueD1Ev(ptr noundef nonnull align 8 dereferenceable(40) %8) #25
  call void @_ZN4Json5ValueC1Ei(ptr noundef nonnull align 8 dereferenceable(40) %9, i32 noundef 1000)
  %35 = invoke noundef nonnull align 8 dereferenceable(40) ptr @_ZN4Json5ValueixEPKc(ptr noundef nonnull align 8 dereferenceable(40) %0, ptr noundef nonnull @.str.37)
          to label %36 unwind label %64

36:                                               ; preds = %33
  %37 = call noundef nonnull align 8 dereferenceable(40) ptr @_ZN4Json5ValueaSEOS0_(ptr noundef nonnull align 8 dereferenceable(40) %35, ptr noundef nonnull align 8 dereferenceable(40) %9) #25
  call void @_ZN4Json5ValueD1Ev(ptr noundef nonnull align 8 dereferenceable(40) %9) #25
  call void @_ZN4Json5ValueC1Eb(ptr noundef nonnull align 8 dereferenceable(40) %10, i1 noundef zeroext false)
  %38 = invoke noundef nonnull align 8 dereferenceable(40) ptr @_ZN4Json5ValueixEPKc(ptr noundef nonnull align 8 dereferenceable(40) %0, ptr noundef nonnull @.str.38)
          to label %39 unwind label %66

39:                                               ; preds = %36
  %40 = call noundef nonnull align 8 dereferenceable(40) ptr @_ZN4Json5ValueaSEOS0_(ptr noundef nonnull align 8 dereferenceable(40) %38, ptr noundef nonnull align 8 dereferenceable(40) %10) #25
  call void @_ZN4Json5ValueD1Ev(ptr noundef nonnull align 8 dereferenceable(40) %10) #25
  call void @_ZN4Json5ValueC1Eb(ptr noundef nonnull align 8 dereferenceable(40) %11, i1 noundef zeroext false)
  %41 = invoke noundef nonnull align 8 dereferenceable(40) ptr @_ZN4Json5ValueixEPKc(ptr noundef nonnull align 8 dereferenceable(40) %0, ptr noundef nonnull @.str.39)
          to label %42 unwind label %68

42:                                               ; preds = %39
  %43 = call noundef nonnull align 8 dereferenceable(40) ptr @_ZN4Json5ValueaSEOS0_(ptr noundef nonnull align 8 dereferenceable(40) %41, ptr noundef nonnull align 8 dereferenceable(40) %11) #25
  call void @_ZN4Json5ValueD1Ev(ptr noundef nonnull align 8 dereferenceable(40) %11) #25
  call void @_ZN4Json5ValueC1Eb(ptr noundef nonnull align 8 dereferenceable(40) %12, i1 noundef zeroext false)
  %44 = invoke noundef nonnull align 8 dereferenceable(40) ptr @_ZN4Json5ValueixEPKc(ptr noundef nonnull align 8 dereferenceable(40) %0, ptr noundef nonnull @.str.40)
          to label %45 unwind label %70

45:                                               ; preds = %42
  %46 = call noundef nonnull align 8 dereferenceable(40) ptr @_ZN4Json5ValueaSEOS0_(ptr noundef nonnull align 8 dereferenceable(40) %44, ptr noundef nonnull align 8 dereferenceable(40) %12) #25
  call void @_ZN4Json5ValueD1Ev(ptr noundef nonnull align 8 dereferenceable(40) %12) #25
  call void @_ZN4Json5ValueC1Eb(ptr noundef nonnull align 8 dereferenceable(40) %13, i1 noundef zeroext true)
  %47 = invoke noundef nonnull align 8 dereferenceable(40) ptr @_ZN4Json5ValueixEPKc(ptr noundef nonnull align 8 dereferenceable(40) %0, ptr noundef nonnull @.str.41)
          to label %48 unwind label %72

48:                                               ; preds = %45
  %49 = call noundef nonnull align 8 dereferenceable(40) ptr @_ZN4Json5ValueaSEOS0_(ptr noundef nonnull align 8 dereferenceable(40) %47, ptr noundef nonnull align 8 dereferenceable(40) %13) #25
  call void @_ZN4Json5ValueD1Ev(ptr noundef nonnull align 8 dereferenceable(40) %13) #25
  ret void

50:                                               ; preds = %1
  %51 = landingpad { ptr, i32 }
          cleanup
  br label %74

52:                                               ; preds = %15
  %53 = landingpad { ptr, i32 }
          cleanup
  br label %74

54:                                               ; preds = %18
  %55 = landingpad { ptr, i32 }
          cleanup
  br label %74

56:                                               ; preds = %21
  %57 = landingpad { ptr, i32 }
          cleanup
  br label %74

58:                                               ; preds = %24
  %59 = landingpad { ptr, i32 }
          cleanup
  br label %74

60:                                               ; preds = %27
  %61 = landingpad { ptr, i32 }
          cleanup
  br label %74

62:                                               ; preds = %30
  %63 = landingpad { ptr, i32 }
          cleanup
  br label %74

64:                                               ; preds = %33
  %65 = landingpad { ptr, i32 }
          cleanup
  br label %74

66:                                               ; preds = %36
  %67 = landingpad { ptr, i32 }
          cleanup
  br label %74

68:                                               ; preds = %39
  %69 = landingpad { ptr, i32 }
          cleanup
  br label %74

70:                                               ; preds = %42
  %71 = landingpad { ptr, i32 }
          cleanup
  br label %74

72:                                               ; preds = %45
  %73 = landingpad { ptr, i32 }
          cleanup
  br label %74

74:                                               ; preds = %72, %70, %68, %66, %64, %62, %60, %58, %56, %54, %52, %50
  %.sink = phi ptr [ %13, %72 ], [ %12, %70 ], [ %11, %68 ], [ %10, %66 ], [ %9, %64 ], [ %8, %62 ], [ %7, %60 ], [ %6, %58 ], [ %5, %56 ], [ %4, %54 ], [ %3, %52 ], [ %2, %50 ]
  %.pn = phi { ptr, i32 } [ %73, %72 ], [ %71, %70 ], [ %69, %68 ], [ %67, %66 ], [ %65, %64 ], [ %63, %62 ], [ %61, %60 ], [ %59, %58 ], [ %57, %56 ], [ %55, %54 ], [ %53, %52 ], [ %51, %50 ]
  call void @_ZN4Json5ValueD1Ev(ptr noundef nonnull align 8 dereferenceable(40) %.sink) #25
  resume { ptr, i32 } %.pn
}